Certificate:
    Data:
        Version: 1 (0x0)
        Serial Number: 15286228683374826282 (0xd42397ff63f1932a)
    Signature Algorithm: sha256WithRSAEncryption
        Issuer: CN=localhost
        Validity
            Not Before: May 23 04:39:19 2021 GMT
            Not After : Jun 22 04:39:19 2021 GMT
        Subject: CN=localhost
        Subject Public Key Info:
            Public Key Algorithm: rsaEncryption
                Public-Key: (2048 bit)
                Modulus:
                    00:b2:40:f8:2a:e4:1f:3f:14:df:9c:a7:53:06:1e:
                    60:c4:74:fb:42:5d:fd:c9:c9:e6:44:92:ae:fa:31:
                    62:79:8f:a1:a3:84:01:be:3a:9e:e8:26:36:90:2c:
                    ed:dd:74:37:d7:0b:9b:a6:17:a6:b8:06:0e:0d:51:
                    4c:b8:2f:0e:54:da:27:61:20:46:ed:9e:49:c4:09:
                    2e:9f:50:74:27:7c:07:1c:74:de:de:cb:61:f6:72:
                    39:4e:bb:be:2f:6e:19:07:d4:93:41:60:2d:43:a6:
                    6d:c7:ce:e8:88:e1:fe:92:88:0d:bf:3a:b5:90:9a:
                    c3:3c:dd:0e:ed:f7:81:a1:34:9a:fb:b3:35:45:4b:
                    ae:57:59:29:22:95:81:cb:01:09:02:b5:4d:c9:1a:
                    f7:06:2c:e8:d8:67:d4:c1:9a:16:ac:15:ef:00:a1:
                    80:8a:98:3b:8a:44:ae:2b:68:e2:a6:ec:70:f5:3d:
                    cc:d6:31:e0:9b:26:ed:ca:09:de:7b:52:dd:65:f5:
                    3f:c6:00:5a:2f:e9:fe:ae:f7:ec:a4:21:b7:11:05:
                    7c:42:08:ff:7c:55:8e:cb:a8:4e:30:11:8f:5e:48:
                    5f:7f:b5:11:bd:4e:0e:55:40:d3:f7:23:70:b1:26:
                    c3:f7:6c:8a:af:fd:91:a4:46:e1:9c:13:65:2d:6c:
                    70:d9
                Exponent: 65537 (0x10001)
    Signature Algorithm: sha256WithRSAEncryption
         68:9b:9b:29:fa:f2:03:f1:e4:8e:ac:07:93:b9:01:c5:16:25:
         93:13:83:b1:d1:58:05:44:b8:41:76:2e:a9:9d:63:82:de:a2:
         dc:14:e5:84:1c:bd:42:88:fb:2d:59:2b:59:e0:41:9f:cb:4c:
         4a:f9:2b:e5:d8:db:88:6f:16:1e:2a:1d:93:21:b3:10:44:e2:
         80:d5:dd:49:37:85:88:01:21:43:86:ae:05:04:3f:c6:48:6b:
         32:c5:4f:39:27:f3:9b:8d:bc:a1:ee:83:dc:b8:03:83:06:a2:
         1b:c6:7c:22:a4:6e:a1:2b:46:08:62:d9:a8:83:91:c8:16:2e:
         ba:65:d5:65:0f:db:f3:e8:0f:41:2a:b1:28:89:c1:e5:1e:99:
         eb:35:79:98:81:f4:48:b5:13:fb:7c:e4:53:01:16:f0:bf:19:
         8b:cb:63:a9:8f:2d:d9:ad:69:24:47:35:9a:3c:a8:05:a3:e6:
         12:39:5d:aa:14:5d:13:ec:8c:f3:5b:79:79:28:03:88:a6:0e:
         96:86:b7:d2:e0:4f:fc:98:cd:f9:71:00:b3:5f:c9:de:2b:b8:
         89:65:f3:54:98:f6:cf:ae:ef:07:92:45:26:99:0f:16:42:58:
         65:59:eb:31:60:0b:91:45:c8:00:43:2d:b7:c8:30:35:df:eb:
         41:f4:0e:e2
-----BEGIN CERTIFICATE-----
MIICpDCCAYwCCQDUI5f/Y/GTKjANBgkqhkiG9w0BAQsFADAUMRIwEAYDVQQDDAls
b2NhbGhvc3QwHhcNMjEwNTIzMDQzOTE5WhcNMjEwNjIyMDQzOTE5WjAUMRIwEAYD
VQQDDAlsb2NhbGhvc3QwggEiMA0GCSqGSIb3DQEBAQUAA4IBDwAwggEKAoIBAQCy
QPgq5B8/FN+cp1MGHmDEdPtCXf3JyeZEkq76MWJ5j6GjhAG+Op7oJjaQLO3ddDfX
C5umF6a4Bg4NUUy4Lw5U2idhIEbtnknECS6fUHQnfAccdN7ey2H2cjlOu74vbhkH
1JNBYC1Dpm3HzuiI4f6SiA2/OrWQmsM83Q7t94GhNJr7szVFS65XWSkilYHLAQkC
tU3JGvcGLOjYZ9TBmhasFe8AoYCKmDuKRK4raOKm7HD1PczWMeCbJu3KCd57Ut1l
9T/GAFov6f6u9+ykIbcRBXxCCP98VY7LqE4wEY9eSF9/tRG9Tg5VQNP3I3CxJsP3
bIqv/ZGkRuGcE2UtbHDZAgMBAAEwDQYJKoZIhvcNAQELBQADggEBAGibmyn68gPx
5I6sB5O5AcUWJZMTg7HRWAVEuEF2LqmdY4LeotwU5YQcvUKI+y1ZK1ngQZ/LTEr5
K+XY24hvFh4qHZMfhsxBE4oDV3Uk3hYgBIUOGrgUEP8ZIazLFTzkn85uNvKHug9y4
A4MGohvGfCKkbqErRghi2aiDkcgWLrpl1WUP2/PoD0EqsSiJweUemes1eZiB9Ei1
E/t85FMBFvC/GYvLY6mPLdmtaSRHNZo8qAWj5hI5XaoUXRPsjPNbeXkoA4imDpaG
t9LgT/thisisfakejustforcheckin+u7weSRSaZDxZCWGVZ6zFgC5FFyABDLbfI
MDXf60H0DuI=
-----END CERTIFICATE-----